target datalayout = "e-m:e-p270:32:32-p271:32:32-p272:64:64-i64:64-i128:128-f80:128-n8:16:32:64-S128"
target triple = "x86_64-pc-linux-gnu"

@evdns_getaddrinfo_impl = internal global ptr null, align 8

; Function Attrs: nounwind uwtable
define hidden ptr @evutil_getaddrinfo_async_(ptr noundef %0, ptr noundef %1, ptr noundef %2, ptr noundef %3, ptr noundef %4, ptr noundef %5) #0 {
  %7 = alloca ptr, align 8
  %8 = alloca ptr, align 8
  %9 = alloca ptr, align 8
  %10 = alloca ptr, align 8
  %11 = alloca ptr, align 8
  %12 = alloca ptr, align 8
  %13 = alloca ptr, align 8
  %14 = alloca ptr, align 8
  %15 = alloca i32, align 4
  store ptr %0, ptr %8, align 8
  store ptr %1, ptr %9, align 8
  store ptr %2, ptr %10, align 8
  store ptr %3, ptr %11, align 8
  store ptr %4, ptr %12, align 8
  store ptr %5, ptr %13, align 8
  %16 = load ptr, ptr %8, align 8
  %17 = icmp ne ptr %16, null
  br i1 %17, label %18, label %30

18:                                               ; preds = %6
  %19 = load ptr, ptr @evdns_getaddrinfo_impl, align 8
  %20 = icmp ne ptr %19, null
  br i1 %20, label %21, label %30

21:                                               ; preds = %18
  %22 = load ptr, ptr @evdns_getaddrinfo_impl, align 8
  %23 = load ptr, ptr %8, align 8
  %24 = load ptr, ptr %9, align 8
  %25 = load ptr, ptr %10, align 8
  %26 = load ptr, ptr %11, align 8
  %27 = load ptr, ptr %12, align 8
  %28 = load ptr, ptr %13, align 8
  %29 = call ptr %22(ptr noundef %23, ptr noundef %24, ptr noundef %25, ptr noundef %26, ptr noundef %27, ptr noundef %28)
  store ptr %29, ptr %7, align 8
  br label %39

30:                                               ; preds = %18, %6
  call void @llvm.lifetime.start.p0(i64 8, ptr %14) #11
  store ptr null, ptr %14, align 8
  call void @llvm.lifetime.start.p0(i64 4, ptr %15) #11
  %31 = load ptr, ptr %9, align 8
  %32 = load ptr, ptr %10, align 8
  %33 = load ptr, ptr %11, align 8
  %34 = call i32 @evutil_getaddrinfo(ptr noundef %31, ptr noundef %32, ptr noundef %33, ptr noundef %14)
  store i32 %34, ptr %15, align 4
  %35 = load ptr, ptr %12, align 8
  %36 = load i32, ptr %15, align 4
  %37 = load ptr, ptr %14, align 8
  %38 = load ptr, ptr %13, align 8
  call void %35(i32 noundef %36, ptr noundef %37, ptr noundef %38)
  store ptr null, ptr %7, align 8
  call void @llvm.lifetime.end.p0(i64 4, ptr %15) #11
  call void @llvm.lifetime.end.p0(i64 8, ptr %14) #11
  br label %39

39:                                               ; preds = %30, %21
  %40 = load ptr, ptr %7, align 8
  ret ptr %40
}