; Function Attrs: nounwind uwtable
define hidden ptr @evutil_getaddrinfo_async_(ptr noundef %0, ptr noundef %1, ptr noundef %2, ptr noundef %3, ptr noundef %4, ptr noundef %5) local_unnamed_addr #0 {
  %7 = alloca ptr, align 8
  %8 = icmp ne ptr %0, null
  %9 = load ptr, ptr @evdns_getaddrinfo_impl, align 8
  %10 = icmp ne ptr %9, null
  %or.cond = select i1 %8, i1 %10, i1 false
  br i1 %or.cond, label %11, label %13

11:                                               ; preds = %6
  %12 = tail call ptr %9(ptr noundef nonnull %0, ptr noundef %1, ptr noundef %2, ptr noundef %3, ptr noundef %4, ptr noundef %5) #30
  br label %16

13:                                               ; preds = %6
  call void @llvm.lifetime.start.p0(i64 8, ptr nonnull %7) #30
  store ptr null, ptr %7, align 8
  %14 = call i32 @evutil_getaddrinfo(ptr noundef %1, ptr noundef %2, ptr noundef %3, ptr noundef nonnull %7)
  %15 = load ptr, ptr %7, align 8
  call void %4(i32 noundef %14, ptr noundef %15, ptr noundef %5) #30
  call void @llvm.lifetime.end.p0(i64 8, ptr nonnull %7) #30
  br label %16

16:                                               ; preds = %13, %11
  %.0 = phi ptr [ %12, %11 ], [ null, %13 ]
  ret ptr %.0
}